; Function Attrs: uwtable
define void @_ZTv0_n32_N8QuantLib14SabrVolSurface6updateEv(ptr noundef %this) unnamed_addr #14 align 2 {
entry:
  %vtable = load ptr, ptr %this, align 8, !tbaa !49
  %0 = getelementptr inbounds i8, ptr %vtable, i64 -32
  %1 = load i64, ptr %0, align 8
  %2 = getelementptr inbounds i8, ptr %this, i64 %1
  tail call void @_ZN8QuantLib13TermStructure6updateEv(ptr noundef nonnull align 8 dereferenceable(64) %2)
  %optionTenors_.i = getelementptr inbounds nuw i8, ptr %2, i64 104
  %_M_finish.i.i = getelementptr inbounds nuw i8, ptr %2, i64 112
  %3 = load ptr, ptr %_M_finish.i.i, align 8, !tbaa !58
  %4 = load ptr, ptr %optionTenors_.i, align 8, !tbaa !60
  %cmp13.not.i = icmp eq ptr %3, %4
  br i1 %cmp13.not.i, label %_ZN8QuantLib14SabrVolSurface6updateEv.exit, label %for.body.lr.ph.i

for.body.lr.ph.i:                                 ; preds = %entry
  %optionDates_.i = getelementptr inbounds nuw i8, ptr %2, i64 152
  %optionTimes_.i = getelementptr inbounds nuw i8, ptr %2, i64 128
  br label %for.body.i

for.body.i:                                       ; preds = %for.body.i, %for.body.lr.ph.i
  %5 = phi ptr [ %4, %for.body.lr.ph.i ], [ %9, %for.body.i ]
  %i.014.i = phi i64 [ 0, %for.body.lr.ph.i ], [ %inc.i, %for.body.i ]
  %add.ptr.i.i = getelementptr inbounds nuw %"class.QuantLib::Period", ptr %5, i64 %i.014.i
  %call4.i = tail call i64 @_ZNK8QuantLib22InterestRateVolSurface19optionDateFromTenorERKNS_6PeriodE(ptr noundef nonnull align 8 dereferenceable(88) %2, ptr noundef nonnull align 4 dereferenceable(8) %add.ptr.i.i)
  %6 = load ptr, ptr %optionDates_.i, align 8, !tbaa !99
  %add.ptr.i6.i = getelementptr inbounds nuw %"class.QuantLib::Date", ptr %6, i64 %i.014.i
  store i64 %call4.i, ptr %add.ptr.i6.i, align 8, !tbaa !44
  %call8.i = tail call noundef double @_ZNK8QuantLib13TermStructure17timeFromReferenceERKNS_4DateE(ptr noundef nonnull align 8 dereferenceable(64) %2, ptr noundef nonnull align 8 dereferenceable(8) %add.ptr.i6.i)
  %7 = load ptr, ptr %optionTimes_.i, align 8, !tbaa !64
  %add.ptr.i8.i = getelementptr inbounds nuw double, ptr %7, i64 %i.014.i
  store double %call8.i, ptr %add.ptr.i8.i, align 8, !tbaa !67
  %inc.i = add nuw i64 %i.014.i, 1
  %8 = load ptr, ptr %_M_finish.i.i, align 8, !tbaa !58
  %9 = load ptr, ptr %optionTenors_.i, align 8, !tbaa !60
  %sub.ptr.lhs.cast.i.i = ptrtoint ptr %8 to i64
  %sub.ptr.rhs.cast.i.i = ptrtoint ptr %9 to i64
  %sub.ptr.sub.i.i = sub i64 %sub.ptr.lhs.cast.i.i, %sub.ptr.rhs.cast.i.i
  %sub.ptr.div.i.i = ashr exact i64 %sub.ptr.sub.i.i, 3
  %cmp.i = icmp ult i64 %inc.i, %sub.ptr.div.i.i
  br i1 %cmp.i, label %for.body.i, label %_ZN8QuantLib14SabrVolSurface6updateEv.exit, !llvm.loop !140

_ZN8QuantLib14SabrVolSurface6updateEv.exit:       ; preds = %for.body.i, %entry
  %vtable.i = load ptr, ptr %2, align 8, !tbaa !49
  %vbase.offset.ptr.i = getelementptr i8, ptr %vtable.i, i64 -32
  %vbase.offset.i = load i64, ptr %vbase.offset.ptr.i, align 8
  %add.ptr.i = getelementptr inbounds i8, ptr %2, i64 %vbase.offset.i
  tail call void @_ZN8QuantLib10Observable15notifyObserversEv(ptr noundef nonnull align 8 dereferenceable(56) %add.ptr.i)
  ret void
}